; Function Attrs: mustprogress nounwind uwtable
define hidden void @_ZN6hermes5irgen11ESTreeIRGen15genCatchHandlerEPNS_6ESTree4NodeE(ptr noundef nonnull align 8 dereferenceable(200) %this, ptr noundef %stmt) local_unnamed_addr #0 align 2 {
entry:
  %kind_.i.i.i.i.i.i.i.i.i = getelementptr inbounds nuw i8, ptr %stmt, i64 16
  %0 = load i32, ptr %kind_.i.i.i.i.i.i.i.i.i, align 8
  %cmp.i.i.i.i.i.i.i.i = icmp ne i32 %0, 19
  %tobool.not6.i = icmp eq ptr %stmt, null
  %tobool.not.i = or i1 %tobool.not6.i, %cmp.i.i.i.i.i.i.i.i
  br i1 %tobool.not.i, label %if.end.i, label %if.then.i

if.then.i:                                        ; preds = %entry
  %_body.i = getelementptr inbounds nuw i8, ptr %stmt, i64 56
  %Next.i.i.i.i.i = getelementptr inbounds nuw i8, ptr %stmt, i64 64
  %__begin3.sroa.0.07.i = load ptr, ptr %Next.i.i.i.i.i, align 8
  %cmp.i.not8.i = icmp eq ptr %__begin3.sroa.0.07.i, %_body.i
  br i1 %cmp.i.not8.i, label %_ZN6hermes5irgen11ESTreeIRGen28genScopelessBlockOrStatementEPNS_6ESTree4NodeE.exit, label %for.body.i

for.body.i:                                       ; preds = %if.then.i, %for.body.i
  %__begin3.sroa.0.09.i = phi ptr [ %__begin3.sroa.0.0.i, %for.body.i ], [ %__begin3.sroa.0.07.i, %if.then.i ]
  tail call void @_ZN6hermes5irgen11ESTreeIRGen12genStatementEPNS_6ESTree4NodeENS1_10IsLoopBodyE(ptr noundef nonnull align 8 dereferenceable(200) %this, ptr noundef nonnull %__begin3.sroa.0.09.i, i32 noundef 0)
  %Next.i.i.i.i = getelementptr inbounds nuw i8, ptr %__begin3.sroa.0.09.i, i64 8
  %__begin3.sroa.0.0.i = load ptr, ptr %Next.i.i.i.i, align 8
  %cmp.i.not.i = icmp eq ptr %__begin3.sroa.0.0.i, %_body.i
  br i1 %cmp.i.not.i, label %_ZN6hermes5irgen11ESTreeIRGen28genScopelessBlockOrStatementEPNS_6ESTree4NodeE.exit, label %for.body.i

if.end.i:                                         ; preds = %entry
  tail call void @_ZN6hermes5irgen11ESTreeIRGen12genStatementEPNS_6ESTree4NodeENS1_10IsLoopBodyE(ptr noundef nonnull align 8 dereferenceable(200) %this, ptr noundef nonnull %stmt, i32 noundef 0)
  br label %_ZN6hermes5irgen11ESTreeIRGen28genScopelessBlockOrStatementEPNS_6ESTree4NodeE.exit

_ZN6hermes5irgen11ESTreeIRGen28genScopelessBlockOrStatementEPNS_6ESTree4NodeE.exit: ; preds = %for.body.i, %if.then.i, %if.end.i
  ret void
}